target datalayout = "e-m:e-p270:32:32-p271:32:32-p272:64:64-i64:64-i128:128-f80:128-n8:16:32:64-S128"
target triple = "x86_64-pc-linux-gnu"

; Function Attrs: nounwind uwtable
define i32 @dt_util_gps_rationale_to_number(double noundef %0, double noundef %1, double noundef %2, double noundef %3, double noundef %4, double noundef %5, i8 noundef signext %6, ptr noundef %7) #0 {
  %9 = alloca i32, align 4
  %10 = alloca double, align 8
  %11 = alloca double, align 8
  %12 = alloca double, align 8
  %13 = alloca double, align 8
  %14 = alloca double, align 8
  %15 = alloca double, align 8
  %16 = alloca i8, align 1
  %17 = alloca ptr, align 8
  %18 = alloca double, align 8
  %19 = alloca double, align 8
  %20 = alloca double, align 8
  %21 = alloca double, align 8
  %22 = alloca double, align 8
  %23 = alloca i32, align 4
  store double %0, ptr %10, align 8, !tbaa !19
  store double %1, ptr %11, align 8, !tbaa !19
  store double %2, ptr %12, align 8, !tbaa !19
  store double %3, ptr %13, align 8, !tbaa !19
  store double %4, ptr %14, align 8, !tbaa !19
  store double %5, ptr %15, align 8, !tbaa !19
  store i8 %6, ptr %16, align 1, !tbaa !18
  store ptr %7, ptr %17, align 8, !tbaa !101
  %24 = load ptr, ptr %17, align 8, !tbaa !101
  %25 = icmp ne ptr %24, null
  br i1 %25, label %27, label %26

26:                                               ; preds = %8
  store i32 0, ptr %9, align 4
  br label %90

27:                                               ; preds = %8
  call void @llvm.lifetime.start.p0(i64 8, ptr %18) #18
  store double 0.000000e+00, ptr %18, align 8, !tbaa !19
  call void @llvm.lifetime.start.p0(i64 8, ptr %19) #18
  call void @llvm.lifetime.start.p0(i64 8, ptr %20) #18
  call void @llvm.lifetime.start.p0(i64 8, ptr %21) #18
  call void @llvm.lifetime.start.p0(i64 8, ptr %22) #18
  %28 = load double, ptr %10, align 8, !tbaa !19
  store double %28, ptr %19, align 8, !tbaa !19
  %29 = load double, ptr %11, align 8, !tbaa !19
  store double %29, ptr %20, align 8, !tbaa !19
  %30 = load double, ptr %20, align 8, !tbaa !19
  %31 = fcmp reassoc nsz arcp contract afn oeq double %30, 0.000000e+00
  br i1 %31, label %32, label %33

32:                                               ; preds = %27
  store i32 0, ptr %9, align 4
  store i32 1, ptr %23, align 4
  br label %89

33:                                               ; preds = %27
  %34 = load double, ptr %19, align 8, !tbaa !19
  %35 = load double, ptr %20, align 8, !tbaa !19
  %36 = fdiv reassoc nsz arcp contract afn double %34, %35
  store double %36, ptr %18, align 8, !tbaa !19
  %37 = load double, ptr %12, align 8, !tbaa !19
  store double %37, ptr %19, align 8, !tbaa !19
  %38 = load double, ptr %13, align 8, !tbaa !19
  store double %38, ptr %20, align 8, !tbaa !19
  %39 = load double, ptr %20, align 8, !tbaa !19
  %40 = fcmp reassoc nsz arcp contract afn oeq double %39, 0.000000e+00
  br i1 %40, label %41, label %42

41:                                               ; preds = %33
  store i32 0, ptr %9, align 4
  store i32 1, ptr %23, align 4
  br label %89

42:                                               ; preds = %33
  %43 = load double, ptr %19, align 8, !tbaa !19
  %44 = load double, ptr %20, align 8, !tbaa !19
  %45 = fdiv reassoc nsz arcp contract afn double %43, %44
  store double %45, ptr %21, align 8, !tbaa !19
  %46 = load double, ptr %21, align 8, !tbaa !19
  %47 = fcmp reassoc nsz arcp contract afn une double %46, -1.000000e+00
  br i1 %47, label %48, label %53

48:                                               ; preds = %42
  %49 = load double, ptr %21, align 8, !tbaa !19
  %50 = fdiv reassoc nsz arcp contract afn double %49, 6.000000e+01
  %51 = load double, ptr %18, align 8, !tbaa !19
  %52 = fadd reassoc nsz arcp contract afn double %51, %50
  store double %52, ptr %18, align 8, !tbaa !19
  br label %53

53:                                               ; preds = %48, %42
  %54 = load double, ptr %14, align 8, !tbaa !19
  store double %54, ptr %19, align 8, !tbaa !19
  %55 = load double, ptr %15, align 8, !tbaa !19
  store double %55, ptr %20, align 8, !tbaa !19
  %56 = load double, ptr %20, align 8, !tbaa !19
  %57 = fcmp reassoc nsz arcp contract afn oeq double %56, 0.000000e+00
  br i1 %57, label %58, label %64

58:                                               ; preds = %53
  %59 = load double, ptr %19, align 8, !tbaa !19
  %60 = fcmp reassoc nsz arcp contract afn oeq double %59, 0.000000e+00
  br i1 %60, label %61, label %62

61:                                               ; preds = %58
  store double 1.000000e+00, ptr %20, align 8, !tbaa !19
  br label %63

62:                                               ; preds = %58
  store i32 0, ptr %9, align 4
  store i32 1, ptr %23, align 4
  br label %89

63:                                               ; preds = %61
  br label %64

64:                                               ; preds = %63, %53
  %65 = load double, ptr %19, align 8, !tbaa !19
  %66 = load double, ptr %20, align 8, !tbaa !19
  %67 = fdiv reassoc nsz arcp contract afn double %65, %66
  store double %67, ptr %22, align 8, !tbaa !19
  %68 = load double, ptr %22, align 8, !tbaa !19
  %69 = fcmp reassoc nsz arcp contract afn une double %68, -1.000000e+00
  br i1 %69, label %70, label %75

70:                                               ; preds = %64
  %71 = load double, ptr %22, align 8, !tbaa !19
  %72 = fdiv reassoc nsz arcp contract afn double %71, 3.600000e+03
  %73 = load double, ptr %18, align 8, !tbaa !19
  %74 = fadd reassoc nsz arcp contract afn double %73, %72
  store double %74, ptr %18, align 8, !tbaa !19
  br label %75

75:                                               ; preds = %70, %64
  %76 = load i8, ptr %16, align 1, !tbaa !18
  %77 = sext i8 %76 to i32
  %78 = icmp eq i32 %77, 83
  br i1 %78, label %83, label %79

79:                                               ; preds = %75
  %80 = load i8, ptr %16, align 1, !tbaa !18
  %81 = sext i8 %80 to i32
  %82 = icmp eq i32 %81, 87
  br i1 %82, label %83, label %86

83:                                               ; preds = %79, %75
  %84 = load double, ptr %18, align 8, !tbaa !19
  %85 = fmul reassoc nsz arcp contract afn double %84, -1.000000e+00
  store double %85, ptr %18, align 8, !tbaa !19
  br label %86

86:                                               ; preds = %83, %79
  %87 = load double, ptr %18, align 8, !tbaa !19
  %88 = load ptr, ptr %17, align 8, !tbaa !101
  store double %87, ptr %88, align 8, !tbaa !19
  store i32 1, ptr %9, align 4
  store i32 1, ptr %23, align 4
  br label %89

89:                                               ; preds = %86, %62, %41, %32
  call void @llvm.lifetime.end.p0(i64 8, ptr %22) #18
  call void @llvm.lifetime.end.p0(i64 8, ptr %21) #18
  call void @llvm.lifetime.end.p0(i64 8, ptr %20) #18
  call void @llvm.lifetime.end.p0(i64 8, ptr %19) #18
  call void @llvm.lifetime.end.p0(i64 8, ptr %18) #18
  br label %90

90:                                               ; preds = %89, %26
  %91 = load i32, ptr %9, align 4
  ret i32 %91
}