; Function Attrs: mustprogress nofree norecurse nosync nounwind willreturn memory(argmem: write) uwtable
define range(i32 0, 2) i32 @dt_util_gps_rationale_to_number(double noundef %0, double noundef %1, double noundef %2, double noundef %3, double noundef %4, double noundef %5, i8 noundef signext %6, ptr noundef writeonly %7) local_unnamed_addr #17 {
  %.not = icmp eq ptr %7, null
  %9 = fcmp reassoc nsz arcp contract afn oeq double %1, 0.000000e+00
  %or.cond39 = or i1 %9, %.not
  %10 = fcmp reassoc nsz arcp contract afn oeq double %3, 0.000000e+00
  %or.cond40 = or i1 %10, %or.cond39
  br i1 %or.cond40, label %27, label %11

11:                                               ; preds = %8
  %12 = fdiv reassoc nsz arcp contract afn double %0, %1
  %13 = fdiv reassoc nsz arcp contract afn double %2, %3
  %14 = fcmp reassoc nsz arcp contract afn une double %13, -1.000000e+00
  %15 = fmul reassoc nsz arcp contract afn double %13, 0x3F91111111111111
  %16 = fadd reassoc nsz arcp contract afn double %15, %12
  %.030 = select nsz i1 %14, double %16, double %12
  %17 = fcmp reassoc nsz arcp contract afn oeq double %5, 0.000000e+00
  br i1 %17, label %18, label %20

18:                                               ; preds = %11
  %19 = fcmp reassoc nsz arcp contract afn oeq double %4, 0.000000e+00
  br i1 %19, label %20, label %27

20:                                               ; preds = %18, %11
  %.032 = phi nsz double [ %5, %11 ], [ 1.000000e+00, %18 ]
  %21 = fdiv reassoc nsz arcp contract afn double %4, %.032
  %22 = fcmp reassoc nsz arcp contract afn une double %21, -1.000000e+00
  %23 = fmul reassoc nsz arcp contract afn double %21, 0x3F323456789ABCDF
  %24 = fadd reassoc nsz arcp contract afn double %23, %.030
  %.131 = select nsz i1 %22, double %24, double %.030
  %25 = and i8 %6, -5
  %or.cond = icmp eq i8 %25, 83
  %26 = fneg reassoc nsz arcp contract afn double %.131
  %.2 = select nsz i1 %or.cond, double %26, double %.131
  store double %.2, ptr %7, align 8, !tbaa !37
  br label %27

27:                                               ; preds = %20, %18, %8
  %.0 = phi i32 [ 0, %8 ], [ 1, %20 ], [ 0, %18 ]
  ret i32 %.0
}